target datalayout = "e-m:e-p270:32:32-p271:32:32-p272:64:64-i64:64-i128:128-f80:128-n8:16:32:64-S128"
target triple = "x86_64-pc-linux-gnu"

%class.QString = type { %struct.QArrayDataPointer }
%struct.QArrayDataPointer = type { ptr, ptr, i64 }
%class.SequenceDialog = type <{ %class.WiresharkDialog.base, [3 x i8], ptr, ptr, ptr, i32, i32, double, i32, i8, [3 x i8], ptr, ptr, ptr, %class.QMenu, ptr, ptr, ptr, ptr, %class.QPointer, i8, [7 x i8] }>
%class.WiresharkDialog.base = type <{ %class.GeometryStateDialog, ptr, i8, [7 x i8], %class.QString, %class.QList, i32, i8 }>
%class.GeometryStateDialog = type { %class.QDialog, %class.QString, ptr }
%class.QDialog = type { %class.QWidget }
%class.QWidget = type { %class.QObject, %class.QPaintDevice.base, ptr }
%class.QObject = type { ptr, %class.QScopedPointer }
%class.QScopedPointer = type { ptr }
%class.QPaintDevice.base = type <{ ptr, i16 }>
%class.QList = type { %struct.QArrayDataPointer.0 }
%struct.QArrayDataPointer.0 = type { ptr, ptr, i64 }
%class.QMenu = type { %class.QWidget }
%class.QPointer = type { %class.QWeakPointer }
%class.QWeakPointer = type { ptr, ptr }
%class.WiresharkDialog = type <{ %class.GeometryStateDialog, ptr, i8, [7 x i8], %class.QString, %class.QList, i32, i8, [3 x i8] }>
%class.CaptureFile = type { %class.QObject, ptr, %class.QString }

; Function Attrs: mustprogress null_pointer_is_valid sspstrong uwtable
define linkonce_odr noundef ptr @_ZNK11CaptureFile7capFileEv(ptr noundef align 8 dereferenceable_or_null(48) %0) #0 comdat align 2 {
  %2 = alloca ptr, align 8
  store ptr %0, ptr %2, align 8
  %3 = load ptr, ptr %2, align 8
  %4 = call noundef zeroext i1 @_ZNK11CaptureFile7isValidEv(ptr noundef align 8 dereferenceable_or_null(48) %3)
  br i1 %4, label %5, label %8

5:                                                ; preds = %1
  %6 = getelementptr inbounds nuw %class.CaptureFile, ptr %3, i32 0, i32 1
  %7 = load ptr, ptr %6, align 8
  br label %9

8:                                                ; preds = %1
  br label %9

9:                                                ; preds = %8, %5
  %10 = phi ptr [ %7, %5 ], [ null, %8 ]
  ret ptr %10
}

; Function Attrs: mustprogress null_pointer_is_valid sspstrong uwtable
define void @_ZN14SequenceDialog29on_actionGoToPacket_triggeredEv(ptr noundef align 8 dereferenceable_or_null(305) %0) #0 align 2 {
  %2 = alloca ptr, align 8
  store ptr %0, ptr %2, align 8
  %3 = load ptr, ptr %2, align 8
  %4 = getelementptr inbounds nuw %class.WiresharkDialog, ptr %3, i32 0, i32 2
  %5 = load i8, ptr %4, align 8, !range !6, !noundef !7
  %6 = trunc i8 %5 to i1
  br i1 %6, label %22, label %7

7:                                                ; preds = %1
  %8 = getelementptr inbounds nuw %class.SequenceDialog, ptr %3, i32 0, i32 6
  %9 = load i32, ptr %8, align 4
  %10 = icmp ugt i32 %9, 0
  br i1 %10, label %11, label %22

11:                                               ; preds = %7
  %12 = getelementptr inbounds nuw %class.WiresharkDialog, ptr %3, i32 0, i32 1
  %13 = load ptr, ptr %12, align 8
  %14 = call noundef ptr @_ZNK11CaptureFile7capFileEv(ptr noundef align 8 dereferenceable_or_null(48) %13)
  %15 = getelementptr inbounds nuw %class.SequenceDialog, ptr %3, i32 0, i32 6
  %16 = load i32, ptr %15, align 4
  %17 = call zeroext i1 @cf_goto_frame(ptr noundef %14, i32 noundef %16, i1 noundef zeroext false)
  %18 = getelementptr inbounds nuw %class.SequenceDialog, ptr %3, i32 0, i32 3
  %19 = load ptr, ptr %18, align 8
  %20 = getelementptr inbounds nuw %class.SequenceDialog, ptr %3, i32 0, i32 6
  %21 = load i32, ptr %20, align 4
  call void @_ZN15SequenceDiagram17setSelectedPacketEi(ptr noundef align 8 dereferenceable_or_null(240) %19, i32 noundef %21)
  br label %22

22:                                               ; preds = %11, %7, %1
  ret void
}