; Function Attrs: mustprogress null_pointer_is_valid sspstrong uwtable
define void @_ZN14SequenceDialog29on_actionGoToPacket_triggeredEv(ptr noundef readonly align 8 captures(none) dereferenceable_or_null(305) %0) local_unnamed_addr #0 align 2 {
  %2 = getelementptr inbounds nuw i8, ptr %0, i64 80
  %3 = load i8, ptr %2, align 8, !range !12, !noundef !13
  %4 = trunc nuw i8 %3 to i1
  br i1 %4, label %21, label %5

5:                                                ; preds = %1
  %6 = getelementptr inbounds nuw i8, ptr %0, i64 172
  %7 = load i32, ptr %6, align 4
  %.not = icmp eq i32 %7, 0
  br i1 %.not, label %21, label %8

8:                                                ; preds = %5
  %9 = getelementptr inbounds nuw i8, ptr %0, i64 72
  %10 = load ptr, ptr %9, align 8
  %11 = tail call noundef zeroext i1 @_ZNK11CaptureFile7isValidEv(ptr noundef align 8 dereferenceable_or_null(48) %10)
  br i1 %11, label %12, label %_ZNK11CaptureFile7capFileEv.exit

12:                                               ; preds = %8
  %13 = getelementptr inbounds nuw i8, ptr %10, i64 16
  %14 = load ptr, ptr %13, align 8
  br label %_ZNK11CaptureFile7capFileEv.exit

_ZNK11CaptureFile7capFileEv.exit:                 ; preds = %8, %12
  %15 = phi ptr [ %14, %12 ], [ null, %8 ]
  %16 = load i32, ptr %6, align 4
  %17 = tail call zeroext i1 @cf_goto_frame(ptr noundef %15, i32 noundef %16, i1 noundef zeroext false)
  %18 = getelementptr inbounds nuw i8, ptr %0, i64 152
  %19 = load ptr, ptr %18, align 8
  %20 = load i32, ptr %6, align 4
  tail call void @_ZN15SequenceDiagram17setSelectedPacketEi(ptr noundef align 8 dereferenceable_or_null(240) %19, i32 noundef %20)
  br label %21

21:                                               ; preds = %_ZNK11CaptureFile7capFileEv.exit, %5, %1
  ret void
}